Certificate:
    Data:
        Version: 3 (0x2)
        Serial Number:
            df:90:06:61:13:34:b7:37:ba:65:25:bb:8d:e7:f6:3a
        Signature Algorithm: sha256WithRSAEncryption
        Issuer: CN=ChangeMe
        Validity
            Not Before: Dec  9 21:24:54 2021 GMT
            Not After : Dec  7 21:24:54 2031 GMT
        Subject: CN=abhi
        Subject Public Key Info:
            Public Key Algorithm: rsaEncryption
                RSA Public-Key: (2048 bit)
                Modulus:
                    00:e4:2c:1f:34:fa:51:26:c3:67:4c:d2:59:8b:38:
                    02:20:89:fc:49:06:e9:dc:cb:f3:1c:8a:4f:c4:97:
                    f7:01:10:19:06:30:9f:1e:cd:5e:12:39:f3:42:fb:
                    7c:f8:ca:64:17:43:10:cb:37:9f:f0:7a:a5:83:38:
                    b2:43:fd:42:6d:1b:3d:3f:76:a8:5e:72:48:bc:f4:
                    1f:f3:b8:00:10:c1:7d:ac:48:69:65:65:b7:c8:4b:
                    40:04:ae:56:a4:e8:26:a3:20:00:33:13:09:83:b5:
                    e7:04:4b:4e:8f:22:d9:1c:46:51:43:ed:bc:09:41:
                    54:aa:52:e4:0e:87:42:b5:b0:8c:a0:98:57:2a:6c:
                    ae:17:d9:b8:1b:9a:80:02:9d:36:f2:54:53:d8:28:
                    f1:73:78:42:b4:8a:4c:cb:50:a2:44:ed:34:57:2b:
                    b3:6d:d0:4a:9c:94:37:93:da:a7:da:bc:d3:23:7e:
                    9a:c6:b1:3a:3e:5e:bc:0e:19:22:dd:af:18:95:d7:
                    fa:7c:80:07:7f:82:59:c4:0c:20:f1:c9:60:f5:2c:
                    93:cd:a3:20:ef:27:d3:99:69:2a:67:ba:72:33:47:
                    bb:78:a4:5f:06:33:66:50:df:c4:6a:1d:85:d0:22:
                    7b:95:c9:39:4a:d0:bc:eb:e1:3c:28:d2:64:95:6c:
                    3c:fd
                Exponent: 65537 (0x10001)
        X509v3 extensions:
            X509v3 Basic Constraints: 
                CA:FALSE
            X509v3 Subject Key Identifier: 
                D5:31:80:E9:49:E9:F8:D8:B5:45:6A:D5:36:83:4E:03:7E:8A:79:4A
            X509v3 Authority Key Identifier: 
                keyid:EB:F0:CE:BC:57:A8:C4:BE:61:CC:FB:99:C1:C1:8C:D3:9F:49:99:55
                DirName:/CN=ChangeMe
                serial:19:DB:53:25:83:11:1C:40:A9:38:E0:3E:CB:0E:59:B1:5D:32:F8:AB

            X509v3 Extended Key Usage: 
                TLS Web Client Authentication
            X509v3 Key Usage: 
                Digital Signature
    Signature Algorithm: sha256WithRSAEncryption
         36:40:4b:20:a5:aa:90:af:e3:9f:db:31:95:e1:2b:4b:71:b3:
         f3:34:38:dd:57:e8:83:cb:4a:36:9b:92:c2:97:b3:a5:3f:f5:
         d1:ca:28:08:fb:eb:f4:c8:47:76:14:31:12:c0:20:9b:62:a7:
         08:de:a3:57:c9:c7:56:0f:08:b9:16:db:58:46:14:c2:c4:54:
         55:d7:4d:31:f2:5a:60:06:99:a9:21:e9:e4:e3:21:5b:dc:17:
         97:df:be:0b:9f:ad:16:8a:78:cb:38:66:79:f3:82:f1:13:65:
         bd:30:47:32:a4:d4:9b:44:56:02:4c:1e:f8:ac:fe:4d:1a:7a:
         ad:0d:bd:7c:78:94:17:7a:9a:11:34:16:70:7b:92:c0:28:fe:
         48:06:7e:63:98:a4:cd:fe:56:e9:eb:5c:ab:ad:53:9c:92:f1:
         9a:b8:0d:38:ea:a0:92:43:2d:fe:9b:6e:cc:28:f8:ea:cd:58:
         35:ae:90:df:77:60:f0:88:2b:b1:54:b3:f3:36:f0:ad:ca:fc:
         76:1f:51:f6:44:df:47:73:ac:22:4f:df:2b:80:8d:3a:f9:b4:
         3d:5e:e9:bf:a5:bc:40:49:84:0c:72:a4:9b:ab:08:54:9f:a3:
         56:b1:7b:84:57:32:b6:3b:79:bc:8e:64:d4:1d:63:3f:09:1c:
         1c:79:30:43
-----BEGIN CERTIFICATE-----
MIIDTTCCAjWgAwIBAgIRAN+QBmETNLc3umUlu43n9jowDQYJKoZIhvcNAQELBQAw
EzERMA8GA1UEAwwIQ2hhbmdlTWUwHhcNMjExMjA5MjEyNDU0WhcNMzExMjA3MjEy
NDU0WjAPMQ0wCwYDVQQDDARhYmhpMIIBIjANBgkqhkiG9w0BAQEFAAOCAQ8AMIIB
CgKCAQEA5CwfNPpRJsNnTNJZizgCIIn8SQbp3MvzHIpPxJf3ARAZBjCfHs1eEjnz
Qvt8+MpkF0MQyzef8HqlgziyQ/1CbRs9P3aoXnJIvPQf87gAEMF9rEhpZWW3yEtA
BK5WpOgmoyAAMxMJg7XnBEtOjyLZHEZRQ+28CUFUqlLkDodCtbCMoJhXKmyuF9m4
G5qAAp028lRT2Cjxc3hCtIpMy1CiRO00VyuzbdBKnJQ3k9qn2rzTI36axrE6Pl68
Dhki3a8Yldf6fIAHf4JZxAwg8clg9SyTzaMg7yfTmWkqZ7pyM0e7eKRfBjNmUN/E
ah2F0CJ7lck5StC86+E8KNJklWw8/QIDAQABo4GfMIGcMAkGA1UdEwQCMAAwHQYD
VR0OBBYEFNUxgOlJ6fjYtUVq1TaDTgN+inlKME4GA1UdIwRHMEWAFOvwzrxXqMS+
Ycz7mcHBjNOfSZlVoRekFTATMREwDwYDVQQDDAhDaGFuZ2VNZYIUGdtTJYMRHECp
OOA+yw5ZsV0y+KswEwYDVR0lBAwwCgYIKwYBBQUHAwIwCwYDVR0PBAQDAgeAMA0G
CSqGSIb3DQEBCwUAA4IBAQA2QEsgpaqQr+Of2zGV4StLcbPzNDjdV+iDy0o2m5LC
l7OlP/XRyigI++v0yEd2FDESwCCbYqcI3qNXycdWDwi5FttYRhTCxFRV100x8lpg
BpmpIenk4yFb3BeX374Ln60WinjLOGZ584LxE2W9MEcypNSbRFYCTB74rP5NGnqt
Db18eJQXepoRNBZwe5LAKP5IBn5jmKTN/lbp61yrrVOckvGauA046qCSQy3+m27M
KPjqzVg1rpDfd2DwiCuxVLPzNvCtyvx2H1H2RN9Hc6wiT98rgI06+bQ9Xum/pbxA
SYQMcqSbqwhUn6NWsXuEVzK2O3m8jmTUHWM/CRwceTBD
-----END CERTIFICATE-----
