Certificate:
    Data:
        Version: 3 (0x2)
        Serial Number:
            e0:1d:f6:31:d6:d5:14:e6:70:c5:03:2b:af:f7:c3:2b
        Signature Algorithm: sha256WithRSAEncryption
        Issuer: CN=ChangeMe
        Validity
            Not Before: Dec  8 20:26:04 2021 GMT
            Not After : Dec  6 20:26:04 2031 GMT
        Subject: CN=advait
        Subject Public Key Info:
            Public Key Algorithm: rsaEncryption
                RSA Public-Key: (2048 bit)
                Modulus:
                    00:b7:7a:9c:d5:72:e9:dd:5a:61:ec:36:1b:fe:77:
                    42:5a:e0:6e:cf:90:4b:0d:96:ec:35:85:f9:e8:44:
                    f5:55:30:91:a6:3d:07:fa:d6:f9:1b:e7:a9:b8:2a:
                    8b:05:03:e0:9b:ed:10:fb:fd:58:6f:e8:e8:d6:ab:
                    ff:43:a0:79:18:0a:56:16:a6:5f:2a:00:6b:76:a9:
                    28:6a:8e:de:fb:37:b9:57:bc:da:e1:d8:93:87:d7:
                    b0:1d:f5:ea:4d:07:f5:db:e7:3f:11:19:ce:9d:4b:
                    07:ff:92:f6:94:69:67:05:33:a8:1b:e8:6c:62:8d:
                    a5:f6:2f:35:33:4d:f4:8d:f2:5f:e8:5a:3e:a2:56:
                    be:da:f9:94:a5:b2:67:99:df:46:d0:0e:32:fb:85:
                    25:ad:f9:59:f7:34:0e:4a:c5:23:71:52:7c:39:32:
                    6a:1d:74:3a:1e:b6:16:89:6d:7d:cb:32:e1:e9:b3:
                    c1:da:07:60:15:7e:16:54:1d:86:91:ae:c3:31:e3:
                    08:8d:0c:ac:8f:4d:70:1b:79:8e:ab:4d:30:1a:a7:
                    6b:f5:98:47:c4:53:99:f1:49:16:48:c6:2e:35:80:
                    30:1c:5d:28:ae:f7:b6:c4:27:62:d7:91:9f:63:ea:
                    a2:92:ef:6f:bd:b7:08:2c:6b:d4:24:2d:93:04:0b:
                    78:01
                Exponent: 65537 (0x10001)
        X509v3 extensions:
            X509v3 Basic Constraints: 
                CA:FALSE
            X509v3 Subject Key Identifier: 
                61:2B:EF:C1:70:87:15:04:07:00:2C:B3:1A:9C:70:F3:C6:F5:B0:08
            X509v3 Authority Key Identifier: 
                keyid:EB:F0:CE:BC:57:A8:C4:BE:61:CC:FB:99:C1:C1:8C:D3:9F:49:99:55
                DirName:/CN=ChangeMe
                serial:19:DB:53:25:83:11:1C:40:A9:38:E0:3E:CB:0E:59:B1:5D:32:F8:AB

            X509v3 Extended Key Usage: 
                TLS Web Client Authentication
            X509v3 Key Usage: 
                Digital Signature
    Signature Algorithm: sha256WithRSAEncryption
         9f:62:b9:c8:91:57:40:c4:4a:dc:e6:c4:44:bc:d8:ad:1a:da:
         18:6e:77:6d:42:7c:c2:7a:98:4a:da:f5:cb:23:20:f3:55:d5:
         eb:06:8a:20:63:f8:f9:ad:4f:e5:05:c1:13:02:e8:e7:aa:cb:
         14:a7:04:e9:a4:f4:a5:00:a1:b4:1d:c9:94:5b:81:72:20:32:
         55:8f:2a:b6:f2:aa:4b:d9:c4:8a:e0:d5:e7:de:b5:35:09:38:
         07:53:c2:a9:0f:07:27:34:88:fa:5b:eb:b5:eb:5f:65:46:90:
         55:6c:ef:13:26:c6:7c:f9:1c:58:cf:a4:da:b4:8f:95:2b:a8:
         62:7c:7a:49:6f:87:33:91:59:33:b0:e6:39:e9:74:78:4e:8a:
         db:00:63:e5:16:9b:af:a9:33:b5:35:61:c3:6a:28:97:8c:5c:
         16:75:b2:6c:9c:fe:6d:e3:c4:7d:7b:96:e0:70:88:05:cb:5e:
         fb:0b:ba:68:32:5c:33:fa:0d:bb:b2:a3:88:00:c1:21:2d:c1:
         80:67:99:51:4d:69:9a:6d:e7:52:05:e2:57:55:7e:24:e8:5c:
         03:34:04:51:0a:1d:88:e0:01:89:98:a4:5d:11:a1:44:0a:e3:
         f0:58:86:8c:5f:e0:a9:f2:70:d9:2e:74:bb:d4:ae:8f:09:68:
         5e:4f:42:3a
-----BEGIN CERTIFICATE-----
MIIDTzCCAjegAwIBAgIRAOAd9jHW1RTmcMUDK6/3wyswDQYJKoZIhvcNAQELBQAw
EzERMA8GA1UEAwwIQ2hhbmdlTWUwHhcNMjExMjA4MjAyNjA0WhcNMzExMjA2MjAy
NjA0WjARMQ8wDQYDVQQDDAZhZHZhaXQwggEiMA0GCSqGSIb3DQEBAQUAA4IBDwAw
ggEKAoIBAQC3epzVcundWmHsNhv+d0Ja4G7PkEsNluw1hfnoRPVVMJGmPQf61vkb
56m4KosFA+Cb7RD7/Vhv6OjWq/9DoHkYClYWpl8qAGt2qShqjt77N7lXvNrh2JOH
17Ad9epNB/Xb5z8RGc6dSwf/kvaUaWcFM6gb6GxijaX2LzUzTfSN8l/oWj6iVr7a
+ZSlsmeZ30bQDjL7hSWt+Vn3NA5KxSNxUnw5MmoddDoethaJbX3LMuHps8HaB2AV
fhZUHYaRrsMx4wiNDKyPTXAbeY6rTTAap2v1mEfEU5nxSRZIxi41gDAcXSiu97bE
J2LXkZ9j6qKS72+9twgsa9QkLZMEC3gBAgMBAAGjgZ8wgZwwCQYDVR0TBAIwADAd
BgNVHQ4EFgQUYSvvwXCHFQQHACyzGpxw88b1sAgwTgYDVR0jBEcwRYAU6/DOvFeo
xL5hzPuZwcGM059JmVWhF6QVMBMxETAPBgNVBAMMCENoYW5nZU1lghQZ21MlgxEc
QKk44D7LDlmxXTL4qzATBgNVHSUEDDAKBggrBgEFBQcDAjALBgNVHQ8EBAMCB4Aw
DQYJKoZIhvcNAQELBQADggEBAJ9iuciRV0DEStzmxES82K0a2hhud21CfMJ6mEra
9csjIPNV1esGiiBj+PmtT+UFwRMC6OeqyxSnBOmk9KUAobQdyZRbgXIgMlWPKrby
qkvZxIrg1efetTUJOAdTwqkPByc0iPpb67XrX2VGkFVs7xMmxnz5HFjPpNq0j5Ur
qGJ8eklvhzORWTOw5jnpdHhOitsAY+UWm6+pM7U1YcNqKJeMXBZ1smyc/m3jxH17
luBwiAXLXvsLumgyXDP6Dbuyo4gAwSEtwYBnmVFNaZpt51IF4ldVfiToXAM0BFEK
HYjgAYmYpF0RoUQK4/BYhoxf4KnycNkudLvUro8JaF5PQjo=
-----END CERTIFICATE-----
