Certificate:
    Data:
        Version: 3 (0x2)
        Serial Number:
            66:09:66:85:f2:51:00:5f:f7:dc:d9:00:bf:a2:e5:9f
        Signature Algorithm: sha256WithRSAEncryption
        Issuer: CN=ChangeMe
        Validity
            Not Before: Dec  8 20:26:01 2021 GMT
            Not After : Dec  6 20:26:01 2031 GMT
        Subject: CN=server
        Subject Public Key Info:
            Public Key Algorithm: rsaEncryption
                RSA Public-Key: (2048 bit)
                Modulus:
                    00:ca:65:16:08:1c:0d:28:a4:51:af:bd:e5:d2:36:
                    4a:6f:64:22:f4:9e:40:61:a6:a1:ca:ce:f9:ed:b4:
                    9c:85:06:df:62:dd:c3:98:fc:47:57:90:2b:cf:6d:
                    38:e7:6c:39:bc:3f:9c:a2:2c:d2:4c:7f:86:43:95:
                    7d:ef:ad:13:22:4a:5f:b6:68:3c:ac:02:ab:b6:71:
                    46:c3:13:01:d9:90:af:e7:0a:48:c3:f9:63:9f:89:
                    59:aa:64:96:86:b5:46:4f:47:90:71:27:0b:6a:d6:
                    25:fe:aa:5c:2c:4c:2f:a9:23:73:97:b9:87:76:96:
                    00:52:17:a1:06:80:b8:54:75:c7:32:75:b0:b4:ed:
                    54:31:f2:01:18:62:29:fe:32:3a:70:8b:21:ed:53:
                    8d:7e:8b:35:bf:8d:8f:7b:5a:fe:37:3c:8c:75:69:
                    a4:43:87:61:df:8d:f9:1d:82:19:a3:3f:d8:01:fa:
                    4c:88:02:f0:7c:80:3f:ca:ba:b0:4a:c4:e6:de:a3:
                    48:b5:18:d6:d7:76:55:be:1f:b0:89:b1:84:ab:89:
                    7d:3b:a6:93:d9:24:6a:81:8b:8f:4a:dc:e9:f5:e8:
                    08:51:4f:4b:cf:ec:38:2a:8e:26:b5:5c:92:5f:e5:
                    39:9d:8c:5a:fc:83:9b:24:b3:d1:b1:5b:23:ff:9b:
                    53:cb
                Exponent: 65537 (0x10001)
        X509v3 extensions:
            X509v3 Basic Constraints: 
                CA:FALSE
            X509v3 Subject Key Identifier: 
                07:67:48:AC:85:A1:28:6B:6F:A9:7B:97:F5:55:38:BD:61:A6:D1:51
            X509v3 Authority Key Identifier: 
                keyid:EB:F0:CE:BC:57:A8:C4:BE:61:CC:FB:99:C1:C1:8C:D3:9F:49:99:55
                DirName:/CN=ChangeMe
                serial:19:DB:53:25:83:11:1C:40:A9:38:E0:3E:CB:0E:59:B1:5D:32:F8:AB

            X509v3 Extended Key Usage: 
                TLS Web Server Authentication
            X509v3 Key Usage: 
                Digital Signature, Key Encipherment
            X509v3 Subject Alternative Name: 
                DNS:server
    Signature Algorithm: sha256WithRSAEncryption
         25:bd:1c:8a:0b:81:e4:28:ef:f1:b6:df:32:67:b1:32:0e:66:
         d5:11:e0:3b:f0:75:ad:be:ef:9f:a1:ae:95:b4:8e:bf:a9:56:
         08:dd:5f:d5:61:53:46:11:c1:c3:76:b1:f8:05:7e:e7:63:52:
         1c:3d:d1:56:87:14:1c:14:15:27:17:f8:44:14:54:b9:35:b7:
         30:8b:e2:ef:fd:32:74:40:9f:56:28:ea:88:6d:58:04:2f:de:
         a8:a5:68:e8:b0:c3:2a:9c:6f:41:af:2e:be:96:1f:31:e5:90:
         2c:d9:bd:1f:c7:ca:0a:72:67:de:21:88:67:ed:91:1d:0d:4d:
         94:a0:93:24:0a:54:ee:ab:f3:8c:5f:3f:8a:82:bb:51:9c:0e:
         e5:49:58:5c:2a:ef:29:1d:54:f8:7a:38:7e:16:84:a5:33:b8:
         7a:44:dd:f7:d9:f3:94:18:db:8b:2d:d0:5f:bf:82:c7:8a:47:
         d0:f5:76:fc:7d:04:a0:fb:bd:71:ca:b4:8a:a3:bc:48:b7:95:
         6d:2c:b9:c1:55:c8:3d:79:f1:ba:51:08:8e:c8:22:c8:32:bc:
         6c:94:81:32:7c:0c:57:ed:f8:5b:04:74:7d:f3:6f:50:b8:72:
         7b:57:1e:c2:7c:1e:eb:f0:d1:45:b3:dc:20:e8:0b:e3:2a:25:
         12:41:c5:9a
-----BEGIN CERTIFICATE-----
MIIDYTCCAkmgAwIBAgIQZglmhfJRAF/33NkAv6LlnzANBgkqhkiG9w0BAQsFADAT
MREwDwYDVQQDDAhDaGFuZ2VNZTAeFw0yMTEyMDgyMDI2MDFaFw0zMTEyMDYyMDI2
MDFaMBExDzANBgNVBAMMBnNlcnZlcjCCASIwDQYJKoZIhvcNAQEBBQADggEPADCC
AQoCggEBAMplFggcDSikUa+95dI2Sm9kIvSeQGGmocrO+e20nIUG32Ldw5j8R1eQ
K89tOOdsObw/nKIs0kx/hkOVfe+tEyJKX7ZoPKwCq7ZxRsMTAdmQr+cKSMP5Y5+J
Wapkloa1Rk9HkHEnC2rWJf6qXCxML6kjc5e5h3aWAFIXoQaAuFR1xzJ1sLTtVDHy
ARhiKf4yOnCLIe1TjX6LNb+Nj3ta/jc8jHVppEOHYd+N+R2CGaM/2AH6TIgC8HyA
P8q6sErE5t6jSLUY1td2Vb4fsImxhKuJfTumk9kkaoGLj0rc6fXoCFFPS8/sOCqO
JrVckl/lOZ2MWvyDmySz0bFbI/+bU8sCAwEAAaOBsjCBrzAJBgNVHRMEAjAAMB0G
A1UdDgQWBBQHZ0ishaEoa2+pe5f1VTi9YabRUTBOBgNVHSMERzBFgBTr8M68V6jE
vmHM+5nBwYzTn0mZVaEXpBUwEzERMA8GA1UEAwwIQ2hhbmdlTWWCFBnbUyWDERxA
qTjgPssOWbFdMvirMBMGA1UdJQQMMAoGCCsGAQUFBwMBMAsGA1UdDwQEAwIFoDAR
BgNVHREECjAIggZzZXJ2ZXIwDQYJKoZIhvcNAQELBQADggEBACW9HIoLgeQo7/G2
3zJnsTIOZtUR4Dvwda2+75+hrpW0jr+pVgjdX9VhU0YRwcN2sfgFfudjUhw90VaH
FBwUFScX+EQUVLk1tzCL4u/9MnRAn1Yo6ohtWAQv3qilaOiwwyqcb0GvLr6WHzHl
kCzZvR/HygpyZ94hiGftkR0NTZSgkyQKVO6r84xfP4qCu1GcDuVJWFwq7ykdVPh6
OH4WhKUzuHpE3ffZ85QY24st0F+/gseKR9D1dvx9BKD7vXHKtIqjvEi3lW0sucFV
yD158bpRCI7IIsgyvGyUgTJ8DFft+FsEdH3zb1C4cntXHsJ8Huvw0UWz3CDoC+Mq
JRJBxZo=
-----END CERTIFICATE-----
