Certificate:
    Data:
        Version: 3 (0x2)
        Serial Number:
            7e:d9:2d:a6:70:b3:00:0c:83:40:20:27:ef:47:16:50
        Signature Algorithm: sha256WithRSAEncryption
        Issuer: CN=ChangeMe
        Validity
            Not Before: Dec  9 21:24:40 2021 GMT
            Not After : Dec  7 21:24:40 2031 GMT
        Subject: CN=joe
        Subject Public Key Info:
            Public Key Algorithm: rsaEncryption
                RSA Public-Key: (2048 bit)
                Modulus:
                    00:c0:81:7a:bd:f3:fd:fd:c7:ca:b8:a2:c7:0d:79:
                    a5:f0:81:e8:7f:cf:68:98:75:ac:2f:9b:28:fd:2d:
                    b3:78:03:a7:60:d5:96:2a:fd:0b:86:b2:db:57:5f:
                    18:0c:4d:03:ec:5f:b9:ac:fd:5a:20:36:aa:a1:75:
                    31:9e:f2:80:b5:65:97:4a:16:90:ce:aa:10:e8:52:
                    b8:dd:13:e0:a1:06:c6:d4:85:5a:cb:f1:0d:ae:95:
                    36:bf:28:ff:da:cf:ab:a0:08:bf:eb:bc:a1:4a:c3:
                    b7:22:c9:bb:bb:81:5f:3e:82:06:21:6b:72:7c:75:
                    09:b5:71:07:bb:04:b7:ef:51:87:a7:cc:e8:30:c4:
                    1c:76:66:94:68:58:ff:84:a8:99:30:37:cc:6c:78:
                    c5:82:1e:37:cc:8c:f5:e1:25:df:e5:2f:a1:1a:a5:
                    bd:52:1f:cf:73:fe:bd:ed:3b:3b:6d:fc:60:7e:b9:
                    93:1e:b0:32:c3:c8:f0:7e:f5:58:a8:76:7d:52:48:
                    df:c4:6b:32:7a:61:84:1d:57:f5:fb:96:16:93:69:
                    1b:eb:7e:b1:c0:2c:8f:9c:20:e3:b7:77:42:3e:4a:
                    63:da:fc:93:3f:5a:fa:28:c9:d4:c9:5d:03:19:67:
                    33:7f:10:5e:b2:52:9a:db:7d:ee:40:c7:7c:48:9d:
                    62:49
                Exponent: 65537 (0x10001)
        X509v3 extensions:
            X509v3 Basic Constraints: 
                CA:FALSE
            X509v3 Subject Key Identifier: 
                C0:DF:7E:A1:14:FC:21:0A:9B:9E:6B:EE:E7:D1:57:A3:4B:65:71:D0
            X509v3 Authority Key Identifier: 
                keyid:EB:F0:CE:BC:57:A8:C4:BE:61:CC:FB:99:C1:C1:8C:D3:9F:49:99:55
                DirName:/CN=ChangeMe
                serial:19:DB:53:25:83:11:1C:40:A9:38:E0:3E:CB:0E:59:B1:5D:32:F8:AB

            X509v3 Extended Key Usage: 
                TLS Web Client Authentication
            X509v3 Key Usage: 
                Digital Signature
    Signature Algorithm: sha256WithRSAEncryption
         98:d8:c0:a5:83:38:a6:a5:c8:58:80:26:5d:31:b1:b9:6d:43:
         67:8f:66:6f:29:4e:d5:35:5b:98:d6:1b:ca:34:25:e2:98:80:
         35:75:ea:89:6f:08:63:f7:51:32:6d:7d:a1:9b:ae:01:a9:1c:
         c6:8a:54:0d:01:df:54:55:5f:4e:69:95:2f:44:58:88:a8:8c:
         9b:9b:59:af:1b:e9:62:5a:12:5a:70:11:0b:db:ca:4f:78:ec:
         1b:1c:19:42:b3:af:ea:f1:68:28:b3:5b:7a:ed:81:ca:7f:dc:
         a0:74:56:12:61:84:c1:f9:6d:fd:ea:69:bd:f2:6f:1b:9f:8b:
         37:c0:91:d7:83:82:86:81:2c:3b:77:7c:b7:c0:19:55:a4:f9:
         0f:30:c6:62:7d:91:a9:6c:b7:b2:d8:85:d2:f2:3f:11:31:a4:
         e3:c2:d2:d8:87:cd:13:94:e3:0a:df:31:87:b8:19:3e:4f:4f:
         21:87:c6:5d:ff:dc:8b:2d:54:8e:33:46:82:57:8c:5d:51:49:
         47:42:bd:a8:3e:a3:9d:b3:5e:a0:99:ca:94:df:9e:03:77:0f:
         64:20:87:71:5a:cc:af:99:13:27:38:cd:c5:eb:12:0b:ae:57:
         b2:3a:0a:07:e1:f3:35:f3:1f:a0:cb:27:2a:5d:3a:9e:c7:da:
         c7:1a:8e:6b
-----BEGIN CERTIFICATE-----
MIIDSzCCAjOgAwIBAgIQftktpnCzAAyDQCAn70cWUDANBgkqhkiG9w0BAQsFADAT
MREwDwYDVQQDDAhDaGFuZ2VNZTAeFw0yMTEyMDkyMTI0NDBaFw0zMTEyMDcyMTI0
NDBaMA4xDDAKBgNVBAMMA2pvZTCCASIwDQYJKoZIhvcNAQEBBQADggEPADCCAQoC
ggEBAMCBer3z/f3Hyriixw15pfCB6H/PaJh1rC+bKP0ts3gDp2DVlir9C4ay21df
GAxNA+xfuaz9WiA2qqF1MZ7ygLVll0oWkM6qEOhSuN0T4KEGxtSFWsvxDa6VNr8o
/9rPq6AIv+u8oUrDtyLJu7uBXz6CBiFrcnx1CbVxB7sEt+9Rh6fM6DDEHHZmlGhY
/4SomTA3zGx4xYIeN8yM9eEl3+UvoRqlvVIfz3P+ve07O238YH65kx6wMsPI8H71
WKh2fVJI38RrMnphhB1X9fuWFpNpG+t+scAsj5wg47d3Qj5KY9r8kz9a+ijJ1Mld
AxlnM38QXrJSmtt97kDHfEidYkkCAwEAAaOBnzCBnDAJBgNVHRMEAjAAMB0GA1Ud
DgQWBBTA336hFPwhCpuea+7n0VejS2Vx0DBOBgNVHSMERzBFgBTr8M68V6jEvmHM
+5nBwYzTn0mZVaEXpBUwEzERMA8GA1UEAwwIQ2hhbmdlTWWCFBnbUyWDERxAqTjg
PssOWbFdMvirMBMGA1UdJQQMMAoGCCsGAQUFBwMCMAsGA1UdDwQEAwIHgDANBgkq
hkiG9w0BAQsFAAOCAQEAmNjApYM4pqXIWIAmXTGxuW1DZ49mbylO1TVbmNYbyjQl
4piANXXqiW8IY/dRMm19oZuuAakcxopUDQHfVFVfTmmVL0RYiKiMm5tZrxvpYloS
WnARC9vKT3jsGxwZQrOv6vFoKLNbeu2Byn/coHRWEmGEwflt/eppvfJvG5+LN8CR
14OChoEsO3d8t8AZVaT5DzDGYn2RqWy3stiF0vI/ETGk48LS2IfNE5TjCt8xh7gZ
Pk9PIYfGXf/ciy1UjjNGgleMXVFJR0K9qD6jnbNeoJnKlN+eA3cPZCCHcVrMr5kT
JzjNxesSC65XsjoKB+HzNfMfoMsnKl06nsfaxxqOaw==
-----END CERTIFICATE-----
